target datalayout = "e-m:e-p270:32:32-p271:32:32-p272:64:64-i64:64-i128:128-f80:128-n8:16:32:64-S128"
target triple = "x86_64-pc-linux-gnu"

%struct.sockaddr = type { i16, [14 x i8] }
%struct.msghdr = type { ptr, i32, ptr, i64, ptr, i64, i32 }
%struct.mmsghdr = type { %struct.msghdr, i32 }

; Function Attrs: nounwind uwtable
define internal i32 @uv__udp_prep_pkt(ptr noundef %0, ptr noundef %1, i32 noundef %2, ptr noundef %3) #0 {
  %5 = alloca i32, align 4
  %6 = alloca ptr, align 8
  %7 = alloca ptr, align 8
  %8 = alloca i32, align 4
  %9 = alloca ptr, align 8
  store ptr %0, ptr %6, align 8
  store ptr %1, ptr %7, align 8
  store i32 %2, ptr %8, align 4
  store ptr %3, ptr %9, align 8
  %10 = load ptr, ptr %6, align 8
  call void @llvm.memset.p0.i64(ptr align 8 %10, i8 0, i64 56, i1 false)
  %11 = load ptr, ptr %9, align 8
  %12 = load ptr, ptr %6, align 8
  %13 = getelementptr inbounds nuw %struct.msghdr, ptr %12, i32 0, i32 0
  store ptr %11, ptr %13, align 8
  %14 = load ptr, ptr %7, align 8
  %15 = load ptr, ptr %6, align 8
  %16 = getelementptr inbounds nuw %struct.msghdr, ptr %15, i32 0, i32 2
  store ptr %14, ptr %16, align 8
  %17 = load i32, ptr %8, align 4
  %18 = zext i32 %17 to i64
  %19 = load ptr, ptr %6, align 8
  %20 = getelementptr inbounds nuw %struct.msghdr, ptr %19, i32 0, i32 3
  store i64 %18, ptr %20, align 8
  %21 = load ptr, ptr %9, align 8
  %22 = icmp eq ptr %21, null
  br i1 %22, label %23, label %24

23:                                               ; preds = %4
  store i32 0, ptr %5, align 4
  br label %42

24:                                               ; preds = %4
  %25 = load ptr, ptr %9, align 8
  %26 = getelementptr inbounds nuw %struct.sockaddr, ptr %25, i32 0, i32 0
  %27 = load i16, ptr %26, align 2
  %28 = zext i16 %27 to i32
  switch i32 %28, label %41 [
    i32 2, label %29
    i32 10, label %32
    i32 1, label %35
    i32 0, label %38
  ]

29:                                               ; preds = %24
  %30 = load ptr, ptr %6, align 8
  %31 = getelementptr inbounds nuw %struct.msghdr, ptr %30, i32 0, i32 1
  store i32 16, ptr %31, align 8
  store i32 0, ptr %5, align 4
  br label %42

32:                                               ; preds = %24
  %33 = load ptr, ptr %6, align 8
  %34 = getelementptr inbounds nuw %struct.msghdr, ptr %33, i32 0, i32 1
  store i32 28, ptr %34, align 8
  store i32 0, ptr %5, align 4
  br label %42

35:                                               ; preds = %24
  %36 = load ptr, ptr %6, align 8
  %37 = getelementptr inbounds nuw %struct.msghdr, ptr %36, i32 0, i32 1
  store i32 110, ptr %37, align 8
  store i32 0, ptr %5, align 4
  br label %42

38:                                               ; preds = %24
  %39 = load ptr, ptr %6, align 8
  %40 = getelementptr inbounds nuw %struct.msghdr, ptr %39, i32 0, i32 0
  store ptr null, ptr %40, align 8
  store i32 0, ptr %5, align 4
  br label %42

41:                                               ; preds = %24
  store i32 -22, ptr %5, align 4
  br label %42

42:                                               ; preds = %41, %38, %35, %32, %29, %23
  %43 = load i32, ptr %5, align 4
  ret i32 %43
}

; Function Attrs: nounwind uwtable
define internal i32 @uv__udp_sendmsgv(i32 noundef %0, i32 noundef %1, ptr noundef %2, ptr noundef %3, ptr noundef %4) #0 {
  %6 = alloca i32, align 4
  %7 = alloca i32, align 4
  %8 = alloca i32, align 4
  %9 = alloca ptr, align 8
  %10 = alloca ptr, align 8
  %11 = alloca ptr, align 8
  %12 = alloca i32, align 4
  %13 = alloca i32, align 4
  %14 = alloca i32, align 4
  %15 = alloca [20 x %struct.mmsghdr], align 16
  %16 = alloca i32, align 4
  %17 = alloca i32, align 4
  store i32 %0, ptr %7, align 4
  store i32 %1, ptr %8, align 4
  store ptr %2, ptr %9, align 8
  store ptr %3, ptr %10, align 8
  store ptr %4, ptr %11, align 8
  call void @llvm.lifetime.start.p0(i64 4, ptr %12) #10
  call void @llvm.lifetime.start.p0(i64 4, ptr %13) #10
  call void @llvm.lifetime.start.p0(i64 4, ptr %14) #10
  store i32 0, ptr %14, align 4
  store i32 0, ptr %13, align 4
  %18 = load i32, ptr %8, align 4
  %19 = icmp ugt i32 %18, 1
  br i1 %19, label %20, label %95

20:                                               ; preds = %5
  store i32 0, ptr %12, align 4
  br label %21

21:                                               ; preds = %93, %20
  %22 = load i32, ptr %12, align 4
  %23 = load i32, ptr %8, align 4
  %24 = icmp ult i32 %22, %23
  br i1 %24, label %25, label %94

25:                                               ; preds = %21
  call void @llvm.lifetime.start.p0(i64 1280, ptr %15) #10
  call void @llvm.lifetime.start.p0(i64 4, ptr %16) #10
  store i32 0, ptr %16, align 4
  br label %26

26:                                               ; preds = %60, %25
  %27 = load i32, ptr %12, align 4
  %28 = load i32, ptr %8, align 4
  %29 = icmp ult i32 %27, %28
  br i1 %29, label %30, label %34

30:                                               ; preds = %26
  %31 = load i32, ptr %16, align 4
  %32 = zext i32 %31 to i64
  %33 = icmp ult i64 %32, 20
  br label %34

34:                                               ; preds = %30, %26
  %35 = phi i1 [ false, %26 ], [ %33, %30 ]
  br i1 %35, label %36, label %65

36:                                               ; preds = %34
  %37 = load i32, ptr %16, align 4
  %38 = zext i32 %37 to i64
  %39 = getelementptr inbounds nuw [20 x %struct.mmsghdr], ptr %15, i64 0, i64 %38
  %40 = getelementptr inbounds nuw %struct.mmsghdr, ptr %39, i32 0, i32 0
  %41 = load ptr, ptr %9, align 8
  %42 = load i32, ptr %12, align 4
  %43 = zext i32 %42 to i64
  %44 = getelementptr inbounds nuw ptr, ptr %41, i64 %43
  %45 = load ptr, ptr %44, align 8
  %46 = load ptr, ptr %10, align 8
  %47 = load i32, ptr %12, align 4
  %48 = zext i32 %47 to i64
  %49 = getelementptr inbounds nuw i32, ptr %46, i64 %48
  %50 = load i32, ptr %49, align 4
  %51 = load ptr, ptr %11, align 8
  %52 = load i32, ptr %12, align 4
  %53 = zext i32 %52 to i64
  %54 = getelementptr inbounds nuw ptr, ptr %51, i64 %53
  %55 = load ptr, ptr %54, align 8
  %56 = call i32 @uv__udp_prep_pkt(ptr noundef %40, ptr noundef %45, i32 noundef %50, ptr noundef %55)
  store i32 %56, ptr %14, align 4
  %57 = icmp ne i32 %56, 0
  br i1 %57, label %58, label %59

58:                                               ; preds = %36
  store i32 7, ptr %17, align 4
  br label %91

59:                                               ; preds = %36
  br label %60

60:                                               ; preds = %59
  %61 = load i32, ptr %12, align 4
  %62 = add i32 %61, 1
  store i32 %62, ptr %12, align 4
  %63 = load i32, ptr %16, align 4
  %64 = add i32 %63, 1
  store i32 %64, ptr %16, align 4
  br label %26

65:                                               ; preds = %34
  br label %66

66:                                               ; preds = %78, %65
  %67 = load i32, ptr %7, align 4
  %68 = getelementptr inbounds [20 x %struct.mmsghdr], ptr %15, i64 0, i64 0
  %69 = load i32, ptr %16, align 4
  %70 = call i32 @sendmmsg(i32 noundef %67, ptr noundef %68, i32 noundef %69, i32 noundef 0)
  store i32 %70, ptr %14, align 4
  br label %71

71:                                               ; preds = %66
  %72 = load i32, ptr %14, align 4
  %73 = icmp eq i32 %72, -1
  br i1 %73, label %74, label %78

74:                                               ; preds = %71
  %75 = call ptr @__errno_location() #11
  %76 = load i32, ptr %75, align 4
  %77 = icmp eq i32 %76, 4
  br label %78

78:                                               ; preds = %74, %71
  %79 = phi i1 [ false, %71 ], [ %77, %74 ]
  br i1 %79, label %66, label %80

80:                                               ; preds = %78
  %81 = load i32, ptr %14, align 4
  %82 = icmp slt i32 %81, 1
  br i1 %82, label %83, label %84

83:                                               ; preds = %80
  store i32 7, ptr %17, align 4
  br label %91

84:                                               ; preds = %80
  %85 = load i32, ptr %14, align 4
  %86 = load i32, ptr %13, align 4
  %87 = add nsw i32 %86, %85
  store i32 %87, ptr %13, align 4
  %88 = load i32, ptr %14, align 4
  %89 = load i32, ptr %12, align 4
  %90 = add i32 %89, %88
  store i32 %90, ptr %12, align 4
  store i32 0, ptr %17, align 4
  br label %91

91:                                               ; preds = %83, %58, %84
  call void @llvm.lifetime.end.p0(i64 4, ptr %16) #10
  call void @llvm.lifetime.end.p0(i64 1280, ptr %15) #10
  %92 = load i32, ptr %17, align 4
  switch i32 %92, label %154 [
    i32 0, label %93
    i32 7, label %127
  ]

93:                                               ; preds = %91
  br label %21

94:                                               ; preds = %21
  br label %127

95:                                               ; preds = %5
  store i32 0, ptr %12, align 4
  br label %96

96:                                               ; preds = %121, %95
  %97 = load i32, ptr %12, align 4
  %98 = load i32, ptr %8, align 4
  %99 = icmp ult i32 %97, %98
  br i1 %99, label %100, label %126

100:                                              ; preds = %96
  %101 = load i32, ptr %7, align 4
  %102 = load ptr, ptr %9, align 8
  %103 = load i32, ptr %12, align 4
  %104 = zext i32 %103 to i64
  %105 = getelementptr inbounds nuw ptr, ptr %102, i64 %104
  %106 = load ptr, ptr %105, align 8
  %107 = load ptr, ptr %10, align 8
  %108 = load i32, ptr %12, align 4
  %109 = zext i32 %108 to i64
  %110 = getelementptr inbounds nuw i32, ptr %107, i64 %109
  %111 = load i32, ptr %110, align 4
  %112 = load ptr, ptr %11, align 8
  %113 = load i32, ptr %12, align 4
  %114 = zext i32 %113 to i64
  %115 = getelementptr inbounds nuw ptr, ptr %112, i64 %114
  %116 = load ptr, ptr %115, align 8
  %117 = call i32 @uv__udp_sendmsg1(i32 noundef %101, ptr noundef %106, i32 noundef %111, ptr noundef %116)
  store i32 %117, ptr %14, align 4
  %118 = icmp ne i32 %117, 0
  br i1 %118, label %119, label %120

119:                                              ; preds = %100
  br label %127

120:                                              ; preds = %100
  br label %121

121:                                              ; preds = %120
  %122 = load i32, ptr %12, align 4
  %123 = add i32 %122, 1
  store i32 %123, ptr %12, align 4
  %124 = load i32, ptr %13, align 4
  %125 = add nsw i32 %124, 1
  store i32 %125, ptr %13, align 4
  br label %96

126:                                              ; preds = %96
  br label %127

127:                                              ; preds = %126, %91, %119, %94
  %128 = load i32, ptr %13, align 4
  %129 = icmp sgt i32 %128, 0
  br i1 %129, label %130, label %132

130:                                              ; preds = %127
  %131 = load i32, ptr %13, align 4
  store i32 %131, ptr %6, align 4
  store i32 1, ptr %17, align 4
  br label %154

132:                                              ; preds = %127
  %133 = load i32, ptr %14, align 4
  %134 = icmp slt i32 %133, 0
  br i1 %134, label %135, label %152

135:                                              ; preds = %132
  %136 = call ptr @__errno_location() #11
  %137 = load i32, ptr %136, align 4
  %138 = sub nsw i32 0, %137
  store i32 %138, ptr %14, align 4
  %139 = call ptr @__errno_location() #11
  %140 = load i32, ptr %139, align 4
  %141 = icmp eq i32 %140, 11
  br i1 %141, label %150, label %142

142:                                              ; preds = %135
  %143 = call ptr @__errno_location() #11
  %144 = load i32, ptr %143, align 4
  %145 = icmp eq i32 %144, 11
  br i1 %145, label %150, label %146

146:                                              ; preds = %142
  %147 = call ptr @__errno_location() #11
  %148 = load i32, ptr %147, align 4
  %149 = icmp eq i32 %148, 105
  br i1 %149, label %150, label %151

150:                                              ; preds = %146, %142, %135
  store i32 -11, ptr %14, align 4
  br label %151

151:                                              ; preds = %150, %146
  br label %152

152:                                              ; preds = %151, %132
  %153 = load i32, ptr %14, align 4
  store i32 %153, ptr %6, align 4
  store i32 1, ptr %17, align 4
  br label %154

154:                                              ; preds = %152, %130, %91
  call void @llvm.lifetime.end.p0(i64 4, ptr %14) #10
  call void @llvm.lifetime.end.p0(i64 4, ptr %13) #10
  call void @llvm.lifetime.end.p0(i64 4, ptr %12) #10
  %155 = load i32, ptr %6, align 4
  ret i32 %155
}