; Function Attrs: nounwind uwtable
define internal fastcc range(i32 -2147483647, -2147483648) i32 @uv__udp_sendmsgv(i32 noundef %0, i32 noundef %1, ptr noundef readonly captures(none) %2, ptr noundef readonly captures(none) %3, ptr noundef readonly captures(none) %4) unnamed_addr #0 {
  %6 = alloca [20 x %struct.mmsghdr], align 16
  %7 = icmp ugt i32 %1, 1
  br i1 %7, label %.preheader75.preheader, label %.preheader77

.preheader75.preheader:                           ; preds = %5
  %8 = zext i32 %1 to i64
  br label %.preheader75

.preheader77:                                     ; preds = %5
  %9 = icmp eq i32 %1, 1
  br i1 %9, label %.lr.ph.split, label %.thread71

.preheader75:                                     ; preds = %.preheader75.preheader, %uv__udp_prep_pkt.exit
  %.04196 = phi i32 [ %44, %uv__udp_prep_pkt.exit ], [ 0, %.preheader75.preheader ]
  %.04595 = phi i32 [ %45, %uv__udp_prep_pkt.exit ], [ 0, %.preheader75.preheader ]
  call void @llvm.lifetime.start.p0(i64 1280, ptr nonnull %6) #10
  %10 = zext i32 %.04595 to i64
  br label %13

.preheader:                                       ; preds = %32
  %11 = trunc nuw i64 %indvars.iv.next110 to i32
  %12 = trunc nuw nsw i64 %indvars.iv.next to i32
  br label %36

13:                                               ; preds = %.preheader75, %32
  %indvars.iv109 = phi i64 [ %10, %.preheader75 ], [ %indvars.iv.next110, %32 ]
  %indvars.iv = phi i64 [ 0, %.preheader75 ], [ %indvars.iv.next, %32 ]
  %14 = getelementptr inbounds nuw [20 x %struct.mmsghdr], ptr %6, i64 0, i64 %indvars.iv
  %15 = getelementptr inbounds nuw ptr, ptr %2, i64 %indvars.iv109
  %16 = load ptr, ptr %15, align 8
  %17 = getelementptr inbounds nuw i32, ptr %3, i64 %indvars.iv109
  %18 = load i32, ptr %17, align 4
  %19 = getelementptr inbounds nuw ptr, ptr %4, i64 %indvars.iv109
  %20 = load ptr, ptr %19, align 8
  %21 = getelementptr inbounds nuw i8, ptr %14, i64 8
  call void @llvm.memset.p0.i64(ptr noundef nonnull align 8 dereferenceable(56) %21, i8 0, i64 48, i1 false)
  store ptr %20, ptr %14, align 16
  %22 = getelementptr inbounds nuw i8, ptr %14, i64 16
  store ptr %16, ptr %22, align 16
  %23 = zext i32 %18 to i64
  %24 = getelementptr inbounds nuw i8, ptr %14, i64 24
  store i64 %23, ptr %24, align 8
  %25 = icmp eq ptr %20, null
  br i1 %25, label %32, label %26

26:                                               ; preds = %13
  %27 = load i16, ptr %20, align 2
  switch i16 %27, label %uv__udp_prep_pkt.exit.thread63 [
    i16 2, label %28
    i16 10, label %29
    i16 1, label %30
    i16 0, label %31
  ]

28:                                               ; preds = %26
  store i32 16, ptr %21, align 8
  br label %32

29:                                               ; preds = %26
  store i32 28, ptr %21, align 8
  br label %32

30:                                               ; preds = %26
  store i32 110, ptr %21, align 8
  br label %32

31:                                               ; preds = %26
  store ptr null, ptr %14, align 16
  br label %32

32:                                               ; preds = %31, %30, %29, %28, %13
  %indvars.iv.next110 = add nuw nsw i64 %indvars.iv109, 1
  %indvars.iv.next = add nuw nsw i64 %indvars.iv, 1
  %33 = icmp samesign ult i64 %indvars.iv.next110, %8
  %34 = icmp samesign ult i64 %indvars.iv, 19
  %35 = select i1 %33, i1 %34, i1 false
  br i1 %35, label %13, label %.preheader

36:                                               ; preds = %.preheader, %39
  %37 = call i32 @sendmmsg(i32 noundef %0, ptr noundef nonnull %6, i32 noundef %12, i32 noundef 0) #10
  %38 = icmp eq i32 %37, -1
  br i1 %38, label %39, label %.critedge

39:                                               ; preds = %36
  %40 = tail call ptr @__errno_location() #11
  %41 = load i32, ptr %40, align 4
  %42 = icmp eq i32 %41, 4
  br i1 %42, label %36, label %uv__udp_prep_pkt.exit.thread63

.critedge:                                        ; preds = %36
  %43 = icmp slt i32 %37, 1
  br i1 %43, label %uv__udp_prep_pkt.exit.thread63, label %uv__udp_prep_pkt.exit

uv__udp_prep_pkt.exit.thread63:                   ; preds = %.critedge, %26, %39
  %.1.ph = phi i32 [ -1, %39 ], [ -22, %26 ], [ %37, %.critedge ]
  call void @llvm.lifetime.end.p0(i64 1280, ptr nonnull %6) #10
  br label %.loopexit

uv__udp_prep_pkt.exit:                            ; preds = %.critedge
  %44 = add nuw nsw i32 %37, %.04196
  %45 = add i32 %37, %11
  call void @llvm.lifetime.end.p0(i64 1280, ptr nonnull %6) #10
  %46 = icmp ult i32 %45, %1
  br i1 %46, label %.preheader75, label %.loopexit

.lr.ph.split:                                     ; preds = %.preheader77
  %47 = load ptr, ptr %2, align 8
  %48 = load i32, ptr %3, align 4
  %49 = load ptr, ptr %4, align 8
  %50 = tail call fastcc i32 @uv__udp_sendmsg1(i32 noundef %0, ptr noundef %47, i32 noundef %48, ptr noundef %49)
  %.not = icmp eq i32 %50, 0
  br i1 %.not, label %.thread71, label %.loopexit.thread

.loopexit:                                        ; preds = %uv__udp_prep_pkt.exit, %uv__udp_prep_pkt.exit.thread63
  %.243 = phi i32 [ %.04196, %uv__udp_prep_pkt.exit.thread63 ], [ %44, %uv__udp_prep_pkt.exit ]
  %.2 = phi i32 [ %.1.ph, %uv__udp_prep_pkt.exit.thread63 ], [ %37, %uv__udp_prep_pkt.exit ]
  %51 = icmp sgt i32 %.243, 0
  br i1 %51, label %.thread71, label %.loopexit.thread

.loopexit.thread:                                 ; preds = %.lr.ph.split, %.loopexit
  %.2116 = phi i32 [ %.2, %.loopexit ], [ %50, %.lr.ph.split ]
  %52 = icmp slt i32 %.2116, 0
  br i1 %52, label %53, label %.thread71

53:                                               ; preds = %.loopexit.thread
  %54 = tail call ptr @__errno_location() #11
  %55 = load i32, ptr %54, align 4
  %56 = sub nsw i32 0, %55
  switch i32 %55, label %.thread71 [
    i32 11, label %57
    i32 105, label %57
  ]

57:                                               ; preds = %53, %53
  br label %.thread71

.thread71:                                        ; preds = %.lr.ph.split, %.preheader77, %.loopexit.thread, %57, %53, %.loopexit
  %.049 = phi i32 [ %.243, %.loopexit ], [ -11, %57 ], [ %.2116, %.loopexit.thread ], [ %56, %53 ], [ 0, %.preheader77 ], [ 1, %.lr.ph.split ]
  ret i32 %.049
}